; Function Attrs: nounwind uwtable
define internal i32 @EdDSA_verify_loop(ptr noundef readonly captures(none) %0) #0 {
  %2 = load ptr, ptr %0, align 8, !tbaa !189
  %3 = getelementptr inbounds nuw i8, ptr %2, i64 16
  %4 = load ptr, ptr %3, align 8, !tbaa !53
  %5 = getelementptr inbounds nuw i8, ptr %2, i64 912
  %6 = getelementptr inbounds nuw i8, ptr %2, i64 24
  %7 = load ptr, ptr %6, align 8, !tbaa !54
  %8 = getelementptr inbounds nuw i8, ptr %2, i64 80
  %9 = load i64, ptr %8, align 8, !tbaa !56
  %10 = load volatile i32, ptr @run, align 4, !tbaa !13
  %.not17 = icmp eq i32 %10, 0
  br i1 %.not17, label %.critedge, label %.lr.ph

.lr.ph:                                           ; preds = %1, %26
  %.018 = phi i32 [ %27, %26 ], [ 0, %1 ]
  %.b = load i1, ptr @testmode, align 4
  %11 = select i1 %.b, i32 1, i32 2147483647
  %12 = icmp samesign ult i32 %.018, %11
  br i1 %12, label %13, label %.critedge

13:                                               ; preds = %.lr.ph
  %14 = load i32, ptr @testnum, align 4, !tbaa !13
  %15 = zext i32 %14 to i64
  %16 = getelementptr inbounds nuw ptr, ptr %5, i64 %15
  %17 = load ptr, ptr %16, align 8, !tbaa !132
  %18 = tail call i32 @EVP_DigestVerifyInit(ptr noundef %17, ptr noundef null, ptr noundef null, ptr noundef null, ptr noundef null) #14
  %19 = icmp eq i32 %18, 0
  br i1 %19, label %.critedge.sink.split, label %20

20:                                               ; preds = %13
  %21 = load i32, ptr @testnum, align 4, !tbaa !13
  %22 = zext i32 %21 to i64
  %23 = getelementptr inbounds nuw ptr, ptr %5, i64 %22
  %24 = load ptr, ptr %23, align 8, !tbaa !132
  %25 = tail call i32 @EVP_DigestVerify(ptr noundef %24, ptr noundef %7, i64 noundef %9, ptr noundef %4, i64 noundef 20) #14
  %.not14 = icmp eq i32 %25, 1
  br i1 %.not14, label %26, label %.critedge.sink.split

26:                                               ; preds = %20
  %27 = add nuw nsw i32 %.018, 1
  %28 = load volatile i32, ptr @run, align 4, !tbaa !13
  %.not = icmp eq i32 %28, 0
  br i1 %.not, label %.critedge, label %.lr.ph, !llvm.loop !227

.critedge.sink.split:                             ; preds = %20, %13
  %.str.461.sink = phi ptr [ @.str.460, %13 ], [ @.str.461, %20 ]
  %29 = load ptr, ptr @bio_err, align 8, !tbaa !19
  %30 = tail call i32 (ptr, ptr, ...) @BIO_printf(ptr noundef %29, ptr noundef nonnull %.str.461.sink) #14
  %31 = load ptr, ptr @bio_err, align 8, !tbaa !19
  tail call void @ERR_print_errors(ptr noundef %31) #14
  store i1 true, ptr @testmoderesult, align 4
  br label %.critedge

.critedge:                                        ; preds = %.lr.ph, %26, %.critedge.sink.split, %1
  %.1 = phi i32 [ 0, %1 ], [ -1, %.critedge.sink.split ], [ %.018, %.lr.ph ], [ %27, %26 ]
  ret i32 %.1
}